target datalayout = "e-m:e-p270:32:32-p271:32:32-p272:64:64-i64:64-i128:128-f80:128-n8:16:32:64-S128"
target triple = "x86_64-pc-linux-gnu"

%class.XPageClosure = type { ptr }
%class.XVerifyViewsFlip = type { ptr }
%class.XPageDebugMapOrUnmapClosure.33 = type { %class.XPageClosure, ptr }

@ZVerifyViews = external global i8, align 1
@_ZN5XHeap5_heapE = external global ptr, align 8
@_ZTV12XPageClosure = linkonce_odr hidden unnamed_addr constant { [3 x ptr] } { [3 x ptr] [ptr null, ptr null, ptr @__cxa_pure_virtual] }, comdat, align 8
@_ZTV27XPageDebugMapOrUnmapClosureILb1EE = linkonce_odr hidden unnamed_addr constant { [3 x ptr] } { [3 x ptr] [ptr null, ptr null, ptr @_ZN27XPageDebugMapOrUnmapClosureILb1EE7do_pageEPK5XPage] }, comdat, align 8

; Function Attrs: mustprogress nounwind uwtable
define linkonce_odr hidden void @_ZN12XPageClosureC2Ev(ptr noundef nonnull align 8 dereferenceable(8) %0) unnamed_addr #1 comdat align 2 {
  %2 = alloca ptr, align 8
  store ptr %0, ptr %2, align 8
  %3 = load ptr, ptr %2, align 8
  store ptr getelementptr inbounds inrange(-16, 8) ({ [3 x ptr] }, ptr @_ZTV12XPageClosure, i32 0, i32 0, i32 2), ptr %3, align 8
  ret void
}

; Function Attrs: mustprogress nounwind uwtable
define linkonce_odr hidden noundef ptr @_ZN5XHeap4heapEv() #1 comdat align 2 {
  %1 = load ptr, ptr @_ZN5XHeap5_heapE, align 8
  ret ptr %1
}

; Function Attrs: mustprogress nounwind uwtable
define linkonce_odr hidden void @_ZN27XPageDebugMapOrUnmapClosureILb1EEC2EPK14XPageAllocator(ptr noundef nonnull align 8 dereferenceable(16) %0, ptr noundef %1) unnamed_addr #1 comdat align 2 {
  %3 = alloca ptr, align 8
  %4 = alloca ptr, align 8
  store ptr %0, ptr %3, align 8
  store ptr %1, ptr %4, align 8
  %5 = load ptr, ptr %3, align 8
  call void @_ZN12XPageClosureC2Ev(ptr noundef nonnull align 8 dereferenceable(8) %5) #7
  store ptr getelementptr inbounds inrange(-16, 8) ({ [3 x ptr] }, ptr @_ZTV27XPageDebugMapOrUnmapClosureILb1EE, i32 0, i32 0, i32 2), ptr %5, align 8
  %6 = getelementptr inbounds %class.XPageDebugMapOrUnmapClosure.33, ptr %5, i32 0, i32 1
  %7 = load ptr, ptr %4, align 8
  store ptr %7, ptr %6, align 8
  ret void
}

; Function Attrs: mustprogress nounwind uwtable
define hidden void @_ZN16XVerifyViewsFlipD2Ev(ptr noundef nonnull align 8 dereferenceable(8) %0) unnamed_addr #1 align 2 {
  %2 = alloca ptr, align 8
  %3 = alloca %class.XPageDebugMapOrUnmapClosure.33, align 8
  store ptr %0, ptr %2, align 8
  %4 = load ptr, ptr %2, align 8
  %5 = load i8, ptr @ZVerifyViews, align 1
  %6 = trunc i8 %5 to i1
  br i1 %6, label %7, label %11

7:                                                ; preds = %1
  %8 = getelementptr inbounds %class.XVerifyViewsFlip, ptr %4, i32 0, i32 0
  %9 = load ptr, ptr %8, align 8
  call void @_ZN27XPageDebugMapOrUnmapClosureILb1EEC2EPK14XPageAllocator(ptr noundef nonnull align 8 dereferenceable(16) %3, ptr noundef %9)
  %10 = call noundef ptr @_ZN5XHeap4heapEv()
  call void @_ZN5XHeap8pages_doEP12XPageClosure(ptr noundef nonnull align 64 dereferenceable(4088) %10, ptr noundef %3)
  br label %11

11:                                               ; preds = %7, %1
  ret void
}