; Function Attrs: mustprogress nounwind uwtable
define hidden void @_ZN16XVerifyViewsFlipD2Ev(ptr nocapture noundef nonnull readonly align 8 dereferenceable(8) %0) unnamed_addr #0 align 2 {
  %2 = alloca %class.XPageDebugMapOrUnmapClosure.33, align 8
  %3 = load i8, ptr @ZVerifyViews, align 1
  %4 = trunc i8 %3 to i1
  br i1 %4, label %5, label %9

5:                                                ; preds = %1
  %6 = load ptr, ptr %0, align 8
  store ptr getelementptr inbounds inrange(-16, 8) (i8, ptr @_ZTV27XPageDebugMapOrUnmapClosureILb1EE, i64 16), ptr %2, align 8
  %7 = getelementptr inbounds i8, ptr %2, i64 8
  store ptr %6, ptr %7, align 8
  %8 = load ptr, ptr @_ZN5XHeap5_heapE, align 8
  call void @_ZN5XHeap8pages_doEP12XPageClosure(ptr noundef nonnull align 64 dereferenceable(4088) %8, ptr noundef nonnull %2) #8
  br label %9

9:                                                ; preds = %5, %1
  ret void
}